target datalayout = "e-m:e-p270:32:32-p271:32:32-p272:64:64-i64:64-i128:128-f80:128-n8:16:32:64-S128"
target triple = "x86_64-pc-linux-gnu"

@ff_vvc_dst7_16x16 = external constant [16 x [16 x i8]], align 16

; Function Attrs: nounwind uwtable
define internal void @matrix_mul(ptr noundef %0, i64 noundef %1, ptr noundef %2, i32 noundef %3, i64 noundef %4) #0 {
  %6 = alloca ptr, align 8
  %7 = alloca i64, align 8
  %8 = alloca ptr, align 8
  %9 = alloca i32, align 4
  %10 = alloca i64, align 8
  %11 = alloca [16 x i32], align 16
  %12 = alloca i32, align 4
  %13 = alloca i32, align 4
  %14 = alloca i32, align 4
  %15 = alloca i32, align 4
  %16 = alloca i32, align 4
  store ptr %0, ptr %6, align 8, !tbaa !4
  store i64 %1, ptr %7, align 8, !tbaa !9
  store ptr %2, ptr %8, align 8, !tbaa !13
  store i32 %3, ptr %9, align 4, !tbaa !11
  store i64 %4, ptr %10, align 8, !tbaa !9
  call void @llvm.lifetime.start.p0(i64 64, ptr %11) #3
  call void @llvm.lifetime.start.p0(i64 4, ptr %12) #3
  store i32 0, ptr %12, align 4, !tbaa !11
  br label %17

17:                                               ; preds = %34, %5
  %18 = load i32, ptr %12, align 4, !tbaa !11
  %19 = sext i32 %18 to i64
  %20 = load i64, ptr %10, align 8, !tbaa !9
  %21 = icmp ult i64 %19, %20
  br i1 %21, label %23, label %22

22:                                               ; preds = %17
  call void @llvm.lifetime.end.p0(i64 4, ptr %12) #3
  br label %37

23:                                               ; preds = %17
  %24 = load ptr, ptr %6, align 8, !tbaa !4
  %25 = load i32, ptr %12, align 4, !tbaa !11
  %26 = sext i32 %25 to i64
  %27 = load i64, ptr %7, align 8, !tbaa !9
  %28 = mul nsw i64 %26, %27
  %29 = getelementptr inbounds i32, ptr %24, i64 %28
  %30 = load i32, ptr %29, align 4, !tbaa !11
  %31 = load i32, ptr %12, align 4, !tbaa !11
  %32 = sext i32 %31 to i64
  %33 = getelementptr inbounds [16 x i32], ptr %11, i64 0, i64 %32
  store i32 %30, ptr %33, align 4, !tbaa !11
  br label %34

34:                                               ; preds = %23
  %35 = load i32, ptr %12, align 4, !tbaa !11
  %36 = add nsw i32 %35, 1
  store i32 %36, ptr %12, align 4, !tbaa !11
  br label %17, !llvm.loop !19

37:                                               ; preds = %22
  call void @llvm.lifetime.start.p0(i64 4, ptr %13) #3
  store i32 0, ptr %13, align 4, !tbaa !11
  br label %38

38:                                               ; preds = %77, %37
  %39 = load i32, ptr %13, align 4, !tbaa !11
  %40 = load i32, ptr %9, align 4, !tbaa !11
  %41 = icmp slt i32 %39, %40
  br i1 %41, label %43, label %42

42:                                               ; preds = %38
  store i32 5, ptr %14, align 4
  call void @llvm.lifetime.end.p0(i64 4, ptr %13) #3
  br label %80

43:                                               ; preds = %38
  call void @llvm.lifetime.start.p0(i64 4, ptr %15) #3
  store i32 0, ptr %15, align 4, !tbaa !11
  call void @llvm.lifetime.start.p0(i64 4, ptr %16) #3
  store i32 0, ptr %16, align 4, !tbaa !11
  br label %44

44:                                               ; preds = %66, %43
  %45 = load i32, ptr %16, align 4, !tbaa !11
  %46 = sext i32 %45 to i64
  %47 = load i64, ptr %10, align 8, !tbaa !9
  %48 = icmp ult i64 %46, %47
  br i1 %48, label %50, label %49

49:                                               ; preds = %44
  store i32 8, ptr %14, align 4
  call void @llvm.lifetime.end.p0(i64 4, ptr %16) #3
  br label %69

50:                                               ; preds = %44
  %51 = load i32, ptr %16, align 4, !tbaa !11
  %52 = sext i32 %51 to i64
  %53 = getelementptr inbounds [16 x i32], ptr %11, i64 0, i64 %52
  %54 = load i32, ptr %53, align 4, !tbaa !11
  %55 = load ptr, ptr %8, align 8, !tbaa !13
  %56 = load i32, ptr %16, align 4, !tbaa !11
  %57 = load i32, ptr %9, align 4, !tbaa !11
  %58 = mul nsw i32 %56, %57
  %59 = sext i32 %58 to i64
  %60 = getelementptr inbounds i8, ptr %55, i64 %59
  %61 = load i8, ptr %60, align 1, !tbaa !15
  %62 = sext i8 %61 to i32
  %63 = mul nsw i32 %54, %62
  %64 = load i32, ptr %15, align 4, !tbaa !11
  %65 = add nsw i32 %64, %63
  store i32 %65, ptr %15, align 4, !tbaa !11
  br label %66

66:                                               ; preds = %50
  %67 = load i32, ptr %16, align 4, !tbaa !11
  %68 = add nsw i32 %67, 1
  store i32 %68, ptr %16, align 4, !tbaa !11
  br label %44, !llvm.loop !20

69:                                               ; preds = %49
  %70 = load i32, ptr %15, align 4, !tbaa !11
  %71 = load ptr, ptr %6, align 8, !tbaa !4
  store i32 %70, ptr %71, align 4, !tbaa !11
  %72 = load i64, ptr %7, align 8, !tbaa !9
  %73 = load ptr, ptr %6, align 8, !tbaa !4
  %74 = getelementptr inbounds i32, ptr %73, i64 %72
  store ptr %74, ptr %6, align 8, !tbaa !4
  %75 = load ptr, ptr %8, align 8, !tbaa !13
  %76 = getelementptr inbounds nuw i8, ptr %75, i32 1
  store ptr %76, ptr %8, align 8, !tbaa !13
  call void @llvm.lifetime.end.p0(i64 4, ptr %15) #3
  br label %77

77:                                               ; preds = %69
  %78 = load i32, ptr %13, align 4, !tbaa !11
  %79 = add nsw i32 %78, 1
  store i32 %79, ptr %13, align 4, !tbaa !11
  br label %38, !llvm.loop !21

80:                                               ; preds = %42
  call void @llvm.lifetime.end.p0(i64 64, ptr %11) #3
  ret void
}

; Function Attrs: nounwind uwtable
define internal void @inv_dst7(ptr noundef %0, i64 noundef %1, ptr noundef %2, i32 noundef %3, i64 noundef %4) #0 {
  %6 = alloca ptr, align 8
  %7 = alloca i64, align 8
  %8 = alloca ptr, align 8
  %9 = alloca i32, align 4
  %10 = alloca i64, align 8
  store ptr %0, ptr %6, align 8, !tbaa !4
  store i64 %1, ptr %7, align 8, !tbaa !9
  store ptr %2, ptr %8, align 8, !tbaa !13
  store i32 %3, ptr %9, align 4, !tbaa !11
  store i64 %4, ptr %10, align 8, !tbaa !9
  %11 = load ptr, ptr %6, align 8, !tbaa !4
  %12 = load i64, ptr %7, align 8, !tbaa !9
  %13 = load ptr, ptr %8, align 8, !tbaa !13
  %14 = load i32, ptr %9, align 4, !tbaa !11
  %15 = load i64, ptr %10, align 8, !tbaa !9
  call void @matrix_mul(ptr noundef %11, i64 noundef %12, ptr noundef %13, i32 noundef %14, i64 noundef %15)
  ret void
}

; Function Attrs: nounwind uwtable
define void @ff_vvc_inv_dst7_16(ptr noundef %0, i64 noundef %1, i64 noundef %2) #0 {
  %4 = alloca ptr, align 8
  %5 = alloca i64, align 8
  %6 = alloca i64, align 8
  store ptr %0, ptr %4, align 8, !tbaa !4
  store i64 %1, ptr %5, align 8, !tbaa !9
  store i64 %2, ptr %6, align 8, !tbaa !9
  %7 = load ptr, ptr %4, align 8, !tbaa !4
  %8 = load i64, ptr %5, align 8, !tbaa !9
  %9 = load i64, ptr %6, align 8, !tbaa !9
  call void @inv_dst7(ptr noundef %7, i64 noundef %8, ptr noundef @ff_vvc_dst7_16x16, i32 noundef 16, i64 noundef %9)
  ret void
}